; Function Attrs: null_pointer_is_valid sspstrong uwtable
define internal i32 @dissect_cose_encrypt0(ptr noundef %0, ptr noundef %1, ptr noundef %2, ptr noundef readonly captures(address_is_null) %3) #0 {
  %5 = alloca i32, align 4
  call void @llvm.lifetime.start.p0(i64 4, ptr nonnull %5) #8
  store i32 0, ptr %5, align 4
  %6 = getelementptr inbounds nuw i8, ptr %1, i64 408
  %7 = load ptr, ptr %6, align 8
  %8 = call ptr @wscbor_chunk_read(ptr noundef %7, ptr noundef %0, ptr noundef nonnull %5)
  %9 = call zeroext i1 @wscbor_require_array_size(ptr noundef %8, i64 noundef 3, i64 noundef 3)
  %10 = load i32, ptr @proto_cose, align 4
  %11 = call ptr @proto_tree_add_cbor_container(ptr noundef %2, i32 noundef %10, ptr noundef %1, ptr noundef %0, ptr noundef %8)
  call void (ptr, ptr, ...) @proto_item_append_text(ptr noundef %11, ptr noundef nonnull @.str.237)
  %12 = load ptr, ptr %6, align 8
  %13 = call zeroext i1 @wscbor_skip_if_errors(ptr noundef %12, ptr noundef %0, ptr noundef nonnull %5, ptr noundef %8)
  br i1 %13, label %dissect_ciphertext.exit, label %14

14:                                               ; preds = %4
  %15 = load i32, ptr @ett_msg, align 4
  %16 = call ptr @proto_item_add_subtree(ptr noundef %11, i32 noundef %15)
  %.not.i = icmp eq ptr %3, null
  br i1 %.not.i, label %dissect_msg_tag.exit, label %17

17:                                               ; preds = %14
  %18 = load i32, ptr @hf_msg_tag, align 4
  %19 = load i32, ptr %3, align 8
  %20 = getelementptr inbounds nuw i8, ptr %3, i64 4
  %21 = load i32, ptr %20, align 4
  %22 = getelementptr inbounds nuw i8, ptr %3, i64 8
  %23 = load i64, ptr %22, align 8
  %24 = call ptr @proto_tree_add_uint64(ptr noundef %16, i32 noundef %18, ptr noundef %0, i32 noundef %19, i32 noundef %21, i64 noundef %23)
  br label %dissect_msg_tag.exit

dissect_msg_tag.exit:                             ; preds = %14, %17
  call fastcc void @dissect_headers(ptr noundef %0, ptr noundef %1, ptr noundef %16, ptr noundef nonnull %5)
  %25 = load ptr, ptr %6, align 8
  %26 = call ptr @wscbor_chunk_read(ptr noundef %25, ptr noundef %0, ptr noundef nonnull %5)
  %27 = getelementptr inbounds nuw i8, ptr %26, i64 40
  %28 = load i32, ptr %27, align 8
  %29 = icmp eq i32 %28, 7
  br i1 %29, label %30, label %33

30:                                               ; preds = %dissect_msg_tag.exit
  %31 = load i32, ptr @hf_ciphertext_null, align 4
  %32 = call ptr @proto_tree_add_cbor_ctrl(ptr noundef %16, i32 noundef %31, ptr noundef %1, ptr noundef %0, ptr noundef %26)
  br label %dissect_ciphertext.exit

33:                                               ; preds = %dissect_msg_tag.exit
  %34 = load ptr, ptr %6, align 8
  %35 = call ptr @wscbor_require_bstr(ptr noundef %34, ptr noundef %26)
  %36 = load i32, ptr @hf_ciphertext_bstr, align 4
  %37 = call ptr @proto_tree_add_cbor_bstr(ptr noundef %16, i32 noundef %36, ptr noundef %1, ptr noundef %0, ptr noundef %26)
  br label %dissect_ciphertext.exit

dissect_ciphertext.exit:                          ; preds = %33, %30, %4
  %38 = load i32, ptr %5, align 4
  call void @llvm.lifetime.end.p0(i64 4, ptr nonnull %5) #8
  ret i32 %38
}